target datalayout = "e-m:e-p270:32:32-p271:32:32-p272:64:64-i64:64-i128:128-f80:128-n8:16:32:64-S128"
target triple = "x86_64-pc-linux-gnu"

%struct.zlentry = type { i32, i32, i32, i32, i32, i8, ptr }

@.str = private unnamed_addr constant [5 x i8] c"NULL\00", align 1
@.str.1 = private unnamed_addr constant [10 x i8] c"ziplist.c\00", align 1
@.str.16 = private unnamed_addr constant [52 x i8] c"{total bytes %u} {num entries %u}\0A{tail offset %u}\0A\00", align 1
@.str.17 = private unnamed_addr constant [40 x i8] c"zipEntrySafe(zl, zlbytes, p, &entry, 1)\00", align 1
@.str.18 = private unnamed_addr constant [131 x i8] c"{\0A\09addr 0x%08lx,\0A\09index %2d,\0A\09offset %5lu,\0A\09hdr+entry len: %5u,\0A\09hdr len%2u,\0A\09prevrawlen: %5u,\0A\09prevrawlensize: %2u,\0A\09payload %5u\0A\00", align 1
@.str.19 = private unnamed_addr constant [9 x i8] c"\09bytes: \00", align 1
@.str.20 = private unnamed_addr constant [6 x i8] c"%02x|\00", align 1
@.str.21 = private unnamed_addr constant [2 x i8] c"\0A\00", align 1
@.str.22 = private unnamed_addr constant [7 x i8] c"\09[str]\00", align 1
@stdout = external global ptr, align 8
@.str.23 = private unnamed_addr constant [7 x i8] c"fwrite\00", align 1
@.str.24 = private unnamed_addr constant [4 x i8] c"...\00", align 1
@.str.25 = private unnamed_addr constant [11 x i8] c"\09[int]%lld\00", align 1
@.str.26 = private unnamed_addr constant [4 x i8] c"\0A}\0A\00", align 1
@.str.27 = private unnamed_addr constant [8 x i8] c"{end}\0A\0A\00", align 1

; Function Attrs: nounwind uwtable
define dso_local i64 @zipLoadInteger(ptr noundef %0, i8 noundef zeroext %1) #0 {
  %3 = alloca ptr, align 8
  %4 = alloca i8, align 1
  %5 = alloca i16, align 2
  %6 = alloca i32, align 4
  %7 = alloca i64, align 8
  %8 = alloca i64, align 8
  store ptr %0, ptr %3, align 8, !tbaa !5
  store i8 %1, ptr %4, align 1, !tbaa !14
  call void @llvm.lifetime.start.p0(i64 2, ptr %5) #11
  call void @llvm.lifetime.start.p0(i64 4, ptr %6) #11
  call void @llvm.lifetime.start.p0(i64 8, ptr %7) #11
  call void @llvm.lifetime.start.p0(i64 8, ptr %8) #11
  store i64 0, ptr %8, align 8, !tbaa !10
  %9 = load i8, ptr %4, align 1, !tbaa !14
  %10 = zext i8 %9 to i32
  %11 = icmp eq i32 %10, 254
  br i1 %11, label %12, label %17

12:                                               ; preds = %2
  %13 = load ptr, ptr %3, align 8, !tbaa !5
  %14 = getelementptr inbounds i8, ptr %13, i64 0
  %15 = load i8, ptr %14, align 1, !tbaa !14
  %16 = sext i8 %15 to i64
  store i64 %16, ptr %8, align 8, !tbaa !10
  br label %70

17:                                               ; preds = %2
  %18 = load i8, ptr %4, align 1, !tbaa !14
  %19 = zext i8 %18 to i32
  %20 = icmp eq i32 %19, 192
  br i1 %20, label %21, label %25

21:                                               ; preds = %17
  %22 = load ptr, ptr %3, align 8, !tbaa !5
  call void @llvm.memcpy.p0.p0.i64(ptr align 2 %5, ptr align 1 %22, i64 2, i1 false)
  %23 = load i16, ptr %5, align 2, !tbaa !19
  %24 = sext i16 %23 to i64
  store i64 %24, ptr %8, align 8, !tbaa !10
  br label %69

25:                                               ; preds = %17
  %26 = load i8, ptr %4, align 1, !tbaa !14
  %27 = zext i8 %26 to i32
  %28 = icmp eq i32 %27, 208
  br i1 %28, label %29, label %33

29:                                               ; preds = %25
  %30 = load ptr, ptr %3, align 8, !tbaa !5
  call void @llvm.memcpy.p0.p0.i64(ptr align 4 %6, ptr align 1 %30, i64 4, i1 false)
  %31 = load i32, ptr %6, align 4, !tbaa !12
  %32 = sext i32 %31 to i64
  store i64 %32, ptr %8, align 8, !tbaa !10
  br label %68

33:                                               ; preds = %25
  %34 = load i8, ptr %4, align 1, !tbaa !14
  %35 = zext i8 %34 to i32
  %36 = icmp eq i32 %35, 240
  br i1 %36, label %37, label %43

37:                                               ; preds = %33
  store i32 0, ptr %6, align 4, !tbaa !12
  %38 = getelementptr inbounds i8, ptr %6, i64 1
  %39 = load ptr, ptr %3, align 8, !tbaa !5
  call void @llvm.memcpy.p0.p0.i64(ptr align 1 %38, ptr align 1 %39, i64 3, i1 false)
  %40 = load i32, ptr %6, align 4, !tbaa !12
  %41 = ashr i32 %40, 8
  %42 = sext i32 %41 to i64
  store i64 %42, ptr %8, align 8, !tbaa !10
  br label %67

43:                                               ; preds = %33
  %44 = load i8, ptr %4, align 1, !tbaa !14
  %45 = zext i8 %44 to i32
  %46 = icmp eq i32 %45, 224
  br i1 %46, label %47, label %50

47:                                               ; preds = %43
  %48 = load ptr, ptr %3, align 8, !tbaa !5
  call void @llvm.memcpy.p0.p0.i64(ptr align 8 %7, ptr align 1 %48, i64 8, i1 false)
  %49 = load i64, ptr %7, align 8, !tbaa !10
  store i64 %49, ptr %8, align 8, !tbaa !10
  br label %66

50:                                               ; preds = %43
  %51 = load i8, ptr %4, align 1, !tbaa !14
  %52 = zext i8 %51 to i32
  %53 = icmp sge i32 %52, 241
  br i1 %53, label %54, label %64

54:                                               ; preds = %50
  %55 = load i8, ptr %4, align 1, !tbaa !14
  %56 = zext i8 %55 to i32
  %57 = icmp sle i32 %56, 253
  br i1 %57, label %58, label %64

58:                                               ; preds = %54
  %59 = load i8, ptr %4, align 1, !tbaa !14
  %60 = zext i8 %59 to i32
  %61 = and i32 %60, 15
  %62 = sub nsw i32 %61, 1
  %63 = sext i32 %62 to i64
  store i64 %63, ptr %8, align 8, !tbaa !10
  br label %65

64:                                               ; preds = %54, %50
  call void @_serverAssert(ptr noundef @.str, ptr noundef @.str.1, i32 noundef 604)
  call void @abort() #12
  unreachable

65:                                               ; preds = %58
  br label %66

66:                                               ; preds = %65, %47
  br label %67

67:                                               ; preds = %66, %37
  br label %68

68:                                               ; preds = %67, %29
  br label %69

69:                                               ; preds = %68, %21
  br label %70

70:                                               ; preds = %69, %12
  %71 = load i64, ptr %8, align 8, !tbaa !10
  call void @llvm.lifetime.end.p0(i64 8, ptr %8) #11
  call void @llvm.lifetime.end.p0(i64 8, ptr %7) #11
  call void @llvm.lifetime.end.p0(i64 4, ptr %6) #11
  call void @llvm.lifetime.end.p0(i64 2, ptr %5) #11
  ret i64 %71
}

; Function Attrs: nounwind uwtable
define dso_local i64 @ziplistBlobLen(ptr noundef %0) #0 {
  %2 = alloca ptr, align 8
  store ptr %0, ptr %2, align 8, !tbaa !5
  %3 = load ptr, ptr %2, align 8, !tbaa !5
  %4 = load i32, ptr %3, align 4, !tbaa !12
  %5 = zext i32 %4 to i64
  ret i64 %5
}

; Function Attrs: nounwind uwtable
define dso_local void @ziplistRepr(ptr noundef %0) #0 {
  %2 = alloca ptr, align 8
  %3 = alloca ptr, align 8
  %4 = alloca i32, align 4
  %5 = alloca %struct.zlentry, align 8
  %6 = alloca i64, align 8
  %7 = alloca i32, align 4
  store ptr %0, ptr %2, align 8, !tbaa !5
  call void @llvm.lifetime.start.p0(i64 8, ptr %3) #11
  call void @llvm.lifetime.start.p0(i64 4, ptr %4) #11
  store i32 0, ptr %4, align 4, !tbaa !12
  call void @llvm.lifetime.start.p0(i64 32, ptr %5) #11
  call void @llvm.lifetime.start.p0(i64 8, ptr %6) #11
  %8 = load ptr, ptr %2, align 8, !tbaa !5
  %9 = call i64 @ziplistBlobLen(ptr noundef %8)
  store i64 %9, ptr %6, align 8, !tbaa !10
  %10 = load ptr, ptr %2, align 8, !tbaa !5
  %11 = load i32, ptr %10, align 4, !tbaa !12
  %12 = load ptr, ptr %2, align 8, !tbaa !5
  %13 = getelementptr inbounds nuw i8, ptr %12, i64 8
  %14 = load i16, ptr %13, align 2, !tbaa !19
  %15 = zext i16 %14 to i32
  %16 = load ptr, ptr %2, align 8, !tbaa !5
  %17 = getelementptr inbounds nuw i8, ptr %16, i64 4
  %18 = load i32, ptr %17, align 4, !tbaa !12
  %19 = call i32 (ptr, ...) @printf(ptr noundef @.str.16, i32 noundef %11, i32 noundef %15, i32 noundef %18)
  %20 = load ptr, ptr %2, align 8, !tbaa !5
  %21 = getelementptr inbounds nuw i8, ptr %20, i64 10
  store ptr %21, ptr %3, align 8, !tbaa !5
  br label %22

22:                                               ; preds = %132, %1
  %23 = load ptr, ptr %3, align 8, !tbaa !5
  %24 = load i8, ptr %23, align 1, !tbaa !14
  %25 = zext i8 %24 to i32
  %26 = icmp ne i32 %25, 255
  br i1 %26, label %27, label %141

27:                                               ; preds = %22
  %28 = load ptr, ptr %2, align 8, !tbaa !5
  %29 = load i64, ptr %6, align 8, !tbaa !10
  %30 = load ptr, ptr %3, align 8, !tbaa !5
  %31 = call i32 @zipEntrySafe(ptr noundef %28, i64 noundef %29, ptr noundef %30, ptr noundef %5, i32 noundef 1)
  %32 = icmp ne i32 %31, 0
  %33 = xor i1 %32, true
  %34 = xor i1 %33, true
  %35 = zext i1 %34 to i32
  %36 = sext i32 %35 to i64
  %37 = call i64 @llvm.expect.i64(i64 %36, i64 1)
  %38 = icmp ne i64 %37, 0
  br i1 %38, label %39, label %40

39:                                               ; preds = %27
  br label %42

40:                                               ; preds = %27
  call void @_serverAssert(ptr noundef @.str.17, ptr noundef @.str.1, i32 noundef 1447)
  call void @abort() #12
  unreachable

41:                                               ; No predecessors!
  br label %42

42:                                               ; preds = %41, %39
  %43 = load ptr, ptr %3, align 8, !tbaa !5
  %44 = ptrtoint ptr %43 to i64
  %45 = load i32, ptr %4, align 4, !tbaa !12
  %46 = load ptr, ptr %3, align 8, !tbaa !5
  %47 = load ptr, ptr %2, align 8, !tbaa !5
  %48 = ptrtoint ptr %46 to i64
  %49 = ptrtoint ptr %47 to i64
  %50 = sub i64 %48, %49
  %51 = getelementptr inbounds nuw %struct.zlentry, ptr %5, i32 0, i32 4
  %52 = load i32, ptr %51, align 8, !tbaa !21
  %53 = getelementptr inbounds nuw %struct.zlentry, ptr %5, i32 0, i32 3
  %54 = load i32, ptr %53, align 4, !tbaa !23
  %55 = add i32 %52, %54
  %56 = getelementptr inbounds nuw %struct.zlentry, ptr %5, i32 0, i32 4
  %57 = load i32, ptr %56, align 8, !tbaa !21
  %58 = getelementptr inbounds nuw %struct.zlentry, ptr %5, i32 0, i32 1
  %59 = load i32, ptr %58, align 4, !tbaa !24
  %60 = getelementptr inbounds nuw %struct.zlentry, ptr %5, i32 0, i32 0
  %61 = load i32, ptr %60, align 8, !tbaa !25
  %62 = getelementptr inbounds nuw %struct.zlentry, ptr %5, i32 0, i32 3
  %63 = load i32, ptr %62, align 4, !tbaa !23
  %64 = call i32 (ptr, ...) @printf(ptr noundef @.str.18, i64 noundef %44, i32 noundef %45, i64 noundef %50, i32 noundef %55, i32 noundef %57, i32 noundef %59, i32 noundef %61, i32 noundef %63)
  %65 = call i32 (ptr, ...) @printf(ptr noundef @.str.19)
  call void @llvm.lifetime.start.p0(i64 4, ptr %7) #11
  store i32 0, ptr %7, align 4, !tbaa !12
  br label %66

66:                                               ; preds = %83, %42
  %67 = load i32, ptr %7, align 4, !tbaa !12
  %68 = getelementptr inbounds nuw %struct.zlentry, ptr %5, i32 0, i32 4
  %69 = load i32, ptr %68, align 8, !tbaa !21
  %70 = getelementptr inbounds nuw %struct.zlentry, ptr %5, i32 0, i32 3
  %71 = load i32, ptr %70, align 4, !tbaa !23
  %72 = add i32 %69, %71
  %73 = icmp ult i32 %67, %72
  br i1 %73, label %75, label %74

74:                                               ; preds = %66
  call void @llvm.lifetime.end.p0(i64 4, ptr %7) #11
  br label %86

75:                                               ; preds = %66
  %76 = load ptr, ptr %3, align 8, !tbaa !5
  %77 = load i32, ptr %7, align 4, !tbaa !12
  %78 = zext i32 %77 to i64
  %79 = getelementptr inbounds nuw i8, ptr %76, i64 %78
  %80 = load i8, ptr %79, align 1, !tbaa !14
  %81 = zext i8 %80 to i32
  %82 = call i32 (ptr, ...) @printf(ptr noundef @.str.20, i32 noundef %81)
  br label %83

83:                                               ; preds = %75
  %84 = load i32, ptr %7, align 4, !tbaa !12
  %85 = add i32 %84, 1
  store i32 %85, ptr %7, align 4, !tbaa !12
  br label %66, !llvm.loop !43

86:                                               ; preds = %74
  %87 = call i32 (ptr, ...) @printf(ptr noundef @.str.21)
  %88 = getelementptr inbounds nuw %struct.zlentry, ptr %5, i32 0, i32 4
  %89 = load i32, ptr %88, align 8, !tbaa !21
  %90 = load ptr, ptr %3, align 8, !tbaa !5
  %91 = zext i32 %89 to i64
  %92 = getelementptr inbounds nuw i8, ptr %90, i64 %91
  store ptr %92, ptr %3, align 8, !tbaa !5
  %93 = getelementptr inbounds nuw %struct.zlentry, ptr %5, i32 0, i32 5
  %94 = load i8, ptr %93, align 4, !tbaa !31
  %95 = zext i8 %94 to i32
  %96 = and i32 %95, 192
  %97 = icmp slt i32 %96, 192
  br i1 %97, label %98, label %126

98:                                               ; preds = %86
  %99 = call i32 (ptr, ...) @printf(ptr noundef @.str.22)
  %100 = getelementptr inbounds nuw %struct.zlentry, ptr %5, i32 0, i32 3
  %101 = load i32, ptr %100, align 4, !tbaa !23
  %102 = icmp ugt i32 %101, 40
  br i1 %102, label %103, label %111

103:                                              ; preds = %98
  %104 = load ptr, ptr %3, align 8, !tbaa !5
  %105 = load ptr, ptr @stdout, align 8, !tbaa !44
  %106 = call i64 @fwrite(ptr noundef %104, i64 noundef 40, i64 noundef 1, ptr noundef %105)
  %107 = icmp eq i64 %106, 0
  br i1 %107, label %108, label %109

108:                                              ; preds = %103
  call void @perror(ptr noundef @.str.23)
  br label %109

109:                                              ; preds = %108, %103
  %110 = call i32 (ptr, ...) @printf(ptr noundef @.str.24)
  br label %125

111:                                              ; preds = %98
  %112 = getelementptr inbounds nuw %struct.zlentry, ptr %5, i32 0, i32 3
  %113 = load i32, ptr %112, align 4, !tbaa !23
  %114 = icmp ne i32 %113, 0
  br i1 %114, label %115, label %124

115:                                              ; preds = %111
  %116 = load ptr, ptr %3, align 8, !tbaa !5
  %117 = getelementptr inbounds nuw %struct.zlentry, ptr %5, i32 0, i32 3
  %118 = load i32, ptr %117, align 4, !tbaa !23
  %119 = zext i32 %118 to i64
  %120 = load ptr, ptr @stdout, align 8, !tbaa !44
  %121 = call i64 @fwrite(ptr noundef %116, i64 noundef %119, i64 noundef 1, ptr noundef %120)
  %122 = icmp eq i64 %121, 0
  br i1 %122, label %123, label %124

123:                                              ; preds = %115
  call void @perror(ptr noundef @.str.23)
  br label %124

124:                                              ; preds = %123, %115, %111
  br label %125

125:                                              ; preds = %124, %109
  br label %132

126:                                              ; preds = %86
  %127 = load ptr, ptr %3, align 8, !tbaa !5
  %128 = getelementptr inbounds nuw %struct.zlentry, ptr %5, i32 0, i32 5
  %129 = load i8, ptr %128, align 4, !tbaa !31
  %130 = call i64 @zipLoadInteger(ptr noundef %127, i8 noundef zeroext %129)
  %131 = call i32 (ptr, ...) @printf(ptr noundef @.str.25, i64 noundef %130)
  br label %132

132:                                              ; preds = %126, %125
  %133 = call i32 (ptr, ...) @printf(ptr noundef @.str.26)
  %134 = getelementptr inbounds nuw %struct.zlentry, ptr %5, i32 0, i32 3
  %135 = load i32, ptr %134, align 4, !tbaa !23
  %136 = load ptr, ptr %3, align 8, !tbaa !5
  %137 = zext i32 %135 to i64
  %138 = getelementptr inbounds nuw i8, ptr %136, i64 %137
  store ptr %138, ptr %3, align 8, !tbaa !5
  %139 = load i32, ptr %4, align 4, !tbaa !12
  %140 = add nsw i32 %139, 1
  store i32 %140, ptr %4, align 4, !tbaa !12
  br label %22, !llvm.loop !46

141:                                              ; preds = %22
  %142 = call i32 (ptr, ...) @printf(ptr noundef @.str.27)
  call void @llvm.lifetime.end.p0(i64 8, ptr %6) #11
  call void @llvm.lifetime.end.p0(i64 32, ptr %5) #11
  call void @llvm.lifetime.end.p0(i64 4, ptr %4) #11
  call void @llvm.lifetime.end.p0(i64 8, ptr %3) #11
  ret void
}