; Function Attrs: nounwind uwtable
define dso_local void @ziplistRepr(ptr noundef %0) local_unnamed_addr #5 {
  %2 = alloca %struct.zlentry, align 8
  call void @llvm.lifetime.start.p0(i64 32, ptr nonnull %2) #17
  %3 = load i32, ptr %0, align 4, !tbaa !5
  %4 = zext i32 %3 to i64
  %5 = getelementptr inbounds nuw i8, ptr %0, i64 8
  %6 = load i16, ptr %5, align 2, !tbaa !12
  %7 = zext i16 %6 to i32
  %8 = getelementptr inbounds nuw i8, ptr %0, i64 4
  %9 = load i32, ptr %8, align 4, !tbaa !5
  %10 = tail call i32 (ptr, ...) @printf(ptr noundef nonnull dereferenceable(1) @.str.16, i32 noundef %3, i32 noundef %7, i32 noundef %9)
  %11 = getelementptr inbounds nuw i8, ptr %0, i64 10
  %12 = load i8, ptr %11, align 1, !tbaa !9
  %.not30 = icmp eq i8 %12, -1
  br i1 %.not30, label %._crit_edge35, label %.lr.ph34

.lr.ph34:                                         ; preds = %1
  %13 = ptrtoint ptr %0 to i64
  %14 = getelementptr inbounds nuw i8, ptr %2, i64 16
  %15 = getelementptr inbounds nuw i8, ptr %2, i64 12
  %16 = getelementptr inbounds nuw i8, ptr %2, i64 4
  %17 = getelementptr inbounds nuw i8, ptr %2, i64 20
  br label %18

18:                                               ; preds = %.lr.ph34, %74
  %.02232 = phi ptr [ %11, %.lr.ph34 ], [ %76, %74 ]
  %.02331 = phi i32 [ 0, %.lr.ph34 ], [ %77, %74 ]
  %19 = call fastcc i32 @zipEntrySafe(ptr noundef nonnull %0, i64 noundef %4, ptr noundef nonnull %.02232, ptr noundef %2, i32 noundef 1)
  %.not25 = icmp eq i32 %19, 0
  br i1 %.not25, label %20, label %21, !prof !24

20:                                               ; preds = %18
  tail call void @_serverAssert(ptr noundef nonnull @.str.17, ptr noundef nonnull @.str.1, i32 noundef 1447) #17
  tail call void @abort() #18
  unreachable

21:                                               ; preds = %18
  %22 = ptrtoint ptr %.02232 to i64
  %23 = sub i64 %22, %13
  %24 = load i32, ptr %14, align 8, !tbaa !22
  %25 = load i32, ptr %15, align 4, !tbaa !21
  %26 = add i32 %25, %24
  %27 = load i32, ptr %16, align 4, !tbaa !19
  %28 = load i32, ptr %2, align 8, !tbaa !15
  %29 = tail call i32 (ptr, ...) @printf(ptr noundef nonnull dereferenceable(1) @.str.18, i64 noundef %22, i32 noundef %.02331, i64 noundef %23, i32 noundef %26, i32 noundef %24, i32 noundef %27, i32 noundef %28, i32 noundef %25)
  %30 = tail call i32 (ptr, ...) @printf(ptr noundef nonnull dereferenceable(1) @.str.19)
  %.not36 = icmp eq i32 %26, 0
  br i1 %.not36, label %._crit_edge, label %.lr.ph.preheader

.lr.ph.preheader:                                 ; preds = %21
  %wide.trip.count = zext i32 %26 to i64
  br label %.lr.ph

._crit_edge:                                      ; preds = %.lr.ph, %21
  %putchar = tail call i32 @putchar(i32 10)
  %31 = zext i32 %24 to i64
  %32 = getelementptr inbounds nuw i8, ptr %.02232, i64 %31
  %33 = load i8, ptr %17, align 4, !tbaa !28
  %.not26 = icmp ugt i8 %33, -65
  br i1 %.not26, label %55, label %38

.lr.ph:                                           ; preds = %.lr.ph.preheader, %.lr.ph
  %indvars.iv = phi i64 [ 0, %.lr.ph.preheader ], [ %indvars.iv.next, %.lr.ph ]
  %34 = getelementptr inbounds nuw i8, ptr %.02232, i64 %indvars.iv
  %35 = load i8, ptr %34, align 1, !tbaa !9
  %36 = zext i8 %35 to i32
  %37 = tail call i32 (ptr, ...) @printf(ptr noundef nonnull dereferenceable(1) @.str.20, i32 noundef %36)
  %indvars.iv.next = add nuw nsw i64 %indvars.iv, 1
  %exitcond.not = icmp eq i64 %indvars.iv.next, %wide.trip.count
  br i1 %exitcond.not, label %._crit_edge, label %.lr.ph, !llvm.loop !37

38:                                               ; preds = %._crit_edge
  %39 = tail call i32 (ptr, ...) @printf(ptr noundef nonnull dereferenceable(1) @.str.22)
  %40 = icmp ugt i32 %25, 40
  br i1 %40, label %41, label %48

41:                                               ; preds = %38
  %42 = load ptr, ptr @stdout, align 8, !tbaa !38
  %43 = tail call i64 @fwrite(ptr noundef nonnull %32, i64 noundef 40, i64 noundef 1, ptr noundef %42)
  %44 = icmp eq i64 %43, 0
  br i1 %44, label %45, label %46

45:                                               ; preds = %41
  tail call void @perror(ptr noundef nonnull @.str.23) #21
  br label %46

46:                                               ; preds = %45, %41
  %47 = tail call i32 (ptr, ...) @printf(ptr noundef nonnull dereferenceable(1) @.str.24)
  br label %74

48:                                               ; preds = %38
  %.not27 = icmp eq i32 %25, 0
  br i1 %.not27, label %74, label %49

49:                                               ; preds = %48
  %50 = zext nneg i32 %25 to i64
  %51 = load ptr, ptr @stdout, align 8, !tbaa !38
  %52 = tail call i64 @fwrite(ptr noundef nonnull %32, i64 noundef %50, i64 noundef 1, ptr noundef %51)
  %53 = icmp eq i64 %52, 0
  br i1 %53, label %54, label %74

54:                                               ; preds = %49
  tail call void @perror(ptr noundef nonnull @.str.23) #21
  br label %74

55:                                               ; preds = %._crit_edge
  switch i8 %33, label %66 [
    i8 -2, label %56
    i8 -64, label %59
    i8 -48, label %61
    i8 -16, label %63
    i8 -32, label %65
  ]

56:                                               ; preds = %55
  %57 = load i8, ptr %32, align 1, !tbaa !9
  %58 = sext i8 %57 to i64
  br label %zipLoadInteger.exit

59:                                               ; preds = %55
  %.0.copyload7.i = load i16, ptr %32, align 1
  %60 = sext i16 %.0.copyload7.i to i64
  br label %zipLoadInteger.exit

61:                                               ; preds = %55
  %.0.copyload4.i = load i32, ptr %32, align 1
  %62 = sext i32 %.0.copyload4.i to i64
  br label %zipLoadInteger.exit

63:                                               ; preds = %55
  %.1.copyload.i = load i24, ptr %32, align 1
  %64 = sext i24 %.1.copyload.i to i64
  br label %zipLoadInteger.exit

65:                                               ; preds = %55
  %.0.copyload.i = load i64, ptr %32, align 1
  br label %zipLoadInteger.exit

66:                                               ; preds = %55
  %67 = add nsw i8 %33, 15
  %or.cond.i = icmp ult i8 %67, 14
  br i1 %or.cond.i, label %68, label %72

68:                                               ; preds = %66
  %69 = and i8 %33, 15
  %70 = zext nneg i8 %69 to i64
  %71 = add nsw i64 %70, -1
  br label %zipLoadInteger.exit

72:                                               ; preds = %66
  tail call void @_serverAssert(ptr noundef nonnull @.str, ptr noundef nonnull @.str.1, i32 noundef 604) #17
  tail call void @abort() #18
  unreachable

zipLoadInteger.exit:                              ; preds = %56, %59, %61, %63, %65, %68
  %.0.i = phi i64 [ %58, %56 ], [ %60, %59 ], [ %62, %61 ], [ %64, %63 ], [ %.0.copyload.i, %65 ], [ %71, %68 ]
  %73 = tail call i32 (ptr, ...) @printf(ptr noundef nonnull dereferenceable(1) @.str.25, i64 noundef %.0.i)
  br label %74

74:                                               ; preds = %46, %54, %49, %48, %zipLoadInteger.exit
  %puts28 = tail call i32 @puts(ptr nonnull dereferenceable(1) @str.1)
  %75 = zext i32 %25 to i64
  %76 = getelementptr inbounds nuw i8, ptr %32, i64 %75
  %77 = add nuw nsw i32 %.02331, 1
  %78 = load i8, ptr %76, align 1, !tbaa !9
  %.not = icmp eq i8 %78, -1
  br i1 %.not, label %._crit_edge35, label %18, !llvm.loop !40

._crit_edge35:                                    ; preds = %74, %1
  %puts = tail call i32 @puts(ptr nonnull dereferenceable(1) @str)
  call void @llvm.lifetime.end.p0(i64 32, ptr nonnull %2) #17
  ret void
}